; Function Attrs: nounwind uwtable
define hidden range(i32 -1, -2147483648) i32 @RSA_public_decrypt(i64 noundef %flen, ptr noundef %from, ptr noundef %to, ptr noundef %rsa, i32 noundef %padding) local_unnamed_addr #0 {
entry:
  %out_len = alloca i64, align 8
  %0 = load ptr, ptr %rsa, align 8
  %size.i = getelementptr inbounds nuw i8, ptr %0, i64 32
  %1 = load ptr, ptr %size.i, align 8
  %tobool.not.i = icmp eq ptr %1, null
  br i1 %tobool.not.i, label %if.end.i, label %if.then.i

if.then.i:                                        ; preds = %entry
  %call.i = tail call i64 %1(ptr noundef nonnull %rsa) #9
  br label %RSA_size.exit

if.end.i:                                         ; preds = %entry
  %call3.i = tail call i64 @rsa_default_size(ptr noundef nonnull %rsa) #9
  br label %RSA_size.exit

RSA_size.exit:                                    ; preds = %if.then.i, %if.end.i
  %retval.0.in.i = phi i64 [ %call.i, %if.then.i ], [ %call3.i, %if.end.i ]
  %conv = and i64 %retval.0.in.i, 4294967295
  %call1 = call i32 @RSA_verify_raw(ptr noundef nonnull %rsa, ptr noundef nonnull %out_len, ptr noundef %to, i64 noundef %conv, ptr noundef %from, i64 noundef %flen, i32 noundef %padding) #9
  %tobool.not = icmp eq i32 %call1, 0
  br i1 %tobool.not, label %return, label %if.end

if.end:                                           ; preds = %RSA_size.exit
  %2 = load i64, ptr %out_len, align 8
  %cmp = icmp ugt i64 %2, 2147483647
  br i1 %cmp, label %if.then3, label %if.end4

if.then3:                                         ; preds = %if.end
  call void @ERR_put_error(i32 noundef 4, i32 noundef 0, i32 noundef 69, ptr noundef nonnull @.str, i32 noundef 270) #9
  br label %return

if.end4:                                          ; preds = %if.end
  %conv5 = trunc nuw nsw i64 %2 to i32
  br label %return

return:                                           ; preds = %RSA_size.exit, %if.end4, %if.then3
  %retval.0 = phi i32 [ -1, %if.then3 ], [ %conv5, %if.end4 ], [ -1, %RSA_size.exit ]
  ret i32 %retval.0
}